target datalayout = "e-m:e-p270:32:32-p271:32:32-p272:64:64-i64:64-i128:128-f80:128-n8:16:32:64-S128"
target triple = "x86_64-pc-linux-gnu"

%struct._attribute_common_fields = type { i32, i32, i32, i32, i32 }

@ett_isakmp_attr = internal global i32 0, align 4
@.str.850 = private unnamed_addr constant [30 x i8] c"Unknown Attribute Type (%02d)\00", align 1
@.str.851 = private unnamed_addr constant [17 x i8] c" (t=%d,l=%d): %s\00", align 1

; Function Attrs: null_pointer_is_valid sspstrong uwtable
define internal void @dissect_attribute_header(ptr noundef %0, ptr noundef %1, i32 noundef %2, ptr noundef byval(%struct._attribute_common_fields) align 8 %3, ptr noundef %4, ptr noundef %5, ptr noundef %6, ptr noundef %7, ptr noundef %8, ptr noundef %9) #0 {
  %11 = alloca ptr, align 8
  %12 = alloca ptr, align 8
  %13 = alloca i32, align 4
  %14 = alloca ptr, align 8
  %15 = alloca ptr, align 8
  %16 = alloca ptr, align 8
  %17 = alloca ptr, align 8
  %18 = alloca ptr, align 8
  %19 = alloca ptr, align 8
  %20 = alloca i32, align 4
  %21 = alloca i8, align 1
  %22 = alloca ptr, align 8
  store ptr %0, ptr %11, align 8
  store ptr %1, ptr %12, align 8
  store i32 %2, ptr %13, align 4
  store ptr %4, ptr %14, align 8
  store ptr %5, ptr %15, align 8
  store ptr %6, ptr %16, align 8
  store ptr %7, ptr %17, align 8
  store ptr %8, ptr %18, align 8
  store ptr %9, ptr %19, align 8
  call void @llvm.lifetime.start.p0(i64 4, ptr %20) #16
  call void @llvm.lifetime.start.p0(i64 1, ptr %21) #16
  call void @llvm.lifetime.start.p0(i64 8, ptr %22) #16
  %23 = load ptr, ptr %11, align 8
  %24 = load i32, ptr %13, align 4
  %25 = call zeroext i16 @tvb_get_ntohs(ptr noundef %23, i32 noundef %24)
  %26 = zext i16 %25 to i32
  store i32 %26, ptr %20, align 4
  %27 = load i32, ptr %20, align 4
  %28 = and i32 %27, 32768
  %29 = icmp ne i32 %28, 0
  %30 = xor i1 %29, true
  %31 = zext i1 %30 to i8
  store i8 %31, ptr %21, align 1
  %32 = load i32, ptr %20, align 4
  %33 = and i32 %32, 32767
  %34 = load ptr, ptr %17, align 8
  store i32 %33, ptr %34, align 4
  %35 = load i8, ptr %21, align 1, !range !6, !noundef !7
  %36 = trunc i8 %35 to i1
  br i1 %36, label %37, label %45

37:                                               ; preds = %10
  %38 = load ptr, ptr %15, align 8
  store i32 4, ptr %38, align 4
  %39 = load ptr, ptr %11, align 8
  %40 = load i32, ptr %13, align 4
  %41 = add i32 %40, 2
  %42 = call zeroext i16 @tvb_get_ntohs(ptr noundef %39, i32 noundef %41)
  %43 = zext i16 %42 to i32
  %44 = load ptr, ptr %16, align 8
  store i32 %43, ptr %44, align 4
  br label %48

45:                                               ; preds = %10
  %46 = load ptr, ptr %15, align 8
  store i32 2, ptr %46, align 4
  %47 = load ptr, ptr %16, align 8
  store i32 2, ptr %47, align 4
  br label %48

48:                                               ; preds = %45, %37
  %49 = load ptr, ptr %12, align 8
  %50 = getelementptr inbounds nuw %struct._attribute_common_fields, ptr %3, i32 0, i32 0
  %51 = load i32, ptr %50, align 8
  %52 = load ptr, ptr %11, align 8
  %53 = load i32, ptr %13, align 4
  %54 = load ptr, ptr %15, align 8
  %55 = load i32, ptr %54, align 4
  %56 = load ptr, ptr %16, align 8
  %57 = load i32, ptr %56, align 4
  %58 = add i32 %55, %57
  %59 = call ptr @proto_tree_add_item(ptr noundef %49, i32 noundef %51, ptr noundef %52, i32 noundef %53, i32 noundef %58, i32 noundef 0)
  %60 = load ptr, ptr %18, align 8
  store ptr %59, ptr %60, align 8
  %61 = load ptr, ptr %17, align 8
  %62 = load i32, ptr %61, align 4
  %63 = load ptr, ptr %14, align 8
  %64 = call ptr @rval_to_str(i32 noundef %62, ptr noundef %63, ptr noundef @.str.850)
  store ptr %64, ptr %22, align 8
  %65 = load ptr, ptr %18, align 8
  %66 = load ptr, ptr %65, align 8
  %67 = load ptr, ptr %17, align 8
  %68 = load i32, ptr %67, align 4
  %69 = load ptr, ptr %16, align 8
  %70 = load i32, ptr %69, align 4
  %71 = load ptr, ptr %22, align 8
  call void (ptr, ptr, ...) @proto_item_append_text(ptr noundef %66, ptr noundef @.str.851, i32 noundef %68, i32 noundef %70, ptr noundef %71)
  %72 = load ptr, ptr %18, align 8
  %73 = load ptr, ptr %72, align 8
  %74 = load i32, ptr @ett_isakmp_attr, align 4
  %75 = call ptr @proto_item_add_subtree(ptr noundef %73, i32 noundef %74)
  %76 = load ptr, ptr %19, align 8
  store ptr %75, ptr %76, align 8
  %77 = load ptr, ptr %19, align 8
  %78 = load ptr, ptr %77, align 8
  %79 = getelementptr inbounds nuw %struct._attribute_common_fields, ptr %3, i32 0, i32 1
  %80 = load i32, ptr %79, align 4
  %81 = load ptr, ptr %11, align 8
  %82 = load i32, ptr %13, align 4
  %83 = call ptr @proto_tree_add_item(ptr noundef %78, i32 noundef %80, ptr noundef %81, i32 noundef %82, i32 noundef 2, i32 noundef 0)
  %84 = load ptr, ptr %19, align 8
  %85 = load ptr, ptr %84, align 8
  %86 = getelementptr inbounds nuw %struct._attribute_common_fields, ptr %3, i32 0, i32 2
  %87 = load i32, ptr %86, align 8
  %88 = load ptr, ptr %11, align 8
  %89 = load i32, ptr %13, align 4
  %90 = load ptr, ptr %17, align 8
  %91 = load i32, ptr %90, align 4
  %92 = call ptr @proto_tree_add_uint(ptr noundef %85, i32 noundef %87, ptr noundef %88, i32 noundef %89, i32 noundef 2, i32 noundef %91)
  %93 = load i8, ptr %21, align 1, !range !6, !noundef !7
  %94 = trunc i8 %93 to i1
  br i1 %94, label %95, label %104

95:                                               ; preds = %48
  %96 = load ptr, ptr %19, align 8
  %97 = load ptr, ptr %96, align 8
  %98 = getelementptr inbounds nuw %struct._attribute_common_fields, ptr %3, i32 0, i32 3
  %99 = load i32, ptr %98, align 4
  %100 = load ptr, ptr %11, align 8
  %101 = load i32, ptr %13, align 4
  %102 = add i32 %101, 2
  %103 = call ptr @proto_tree_add_item(ptr noundef %97, i32 noundef %99, ptr noundef %100, i32 noundef %102, i32 noundef 2, i32 noundef 0)
  br label %104

104:                                              ; preds = %95, %48
  %105 = load ptr, ptr %16, align 8
  %106 = load i32, ptr %105, align 4
  %107 = icmp ugt i32 %106, 0
  br i1 %107, label %108, label %121

108:                                              ; preds = %104
  %109 = load ptr, ptr %19, align 8
  %110 = load ptr, ptr %109, align 8
  %111 = getelementptr inbounds nuw %struct._attribute_common_fields, ptr %3, i32 0, i32 4
  %112 = load i32, ptr %111, align 8
  %113 = load ptr, ptr %11, align 8
  %114 = load i32, ptr %13, align 4
  %115 = load ptr, ptr %15, align 8
  %116 = load i32, ptr %115, align 4
  %117 = add i32 %114, %116
  %118 = load ptr, ptr %16, align 8
  %119 = load i32, ptr %118, align 4
  %120 = call ptr @proto_tree_add_item(ptr noundef %110, i32 noundef %112, ptr noundef %113, i32 noundef %117, i32 noundef %119, i32 noundef 0)
  br label %121

121:                                              ; preds = %108, %104
  call void @llvm.lifetime.end.p0(i64 8, ptr %22) #16
  call void @llvm.lifetime.end.p0(i64 1, ptr %21) #16
  call void @llvm.lifetime.end.p0(i64 4, ptr %20) #16
  ret void
}