; Function Attrs: null_pointer_is_valid sspstrong uwtable
define internal fastcc void @dissect_attribute_header(ptr noundef %0, ptr noundef %1, i32 noundef %2, ptr noundef readonly byval(%struct._attribute_common_fields) align 8 captures(none) %3, ptr noundef %4, ptr noundef captures(none) initializes((0, 4)) %5, ptr noundef captures(none) initializes((0, 4)) %6, ptr noundef captures(none) initializes((0, 4)) %7, ptr noundef captures(none) initializes((0, 8)) %8, ptr noundef captures(none) initializes((0, 8)) %9) unnamed_addr #0 {
  %11 = tail call zeroext i16 @tvb_get_ntohs(ptr noundef %0, i32 noundef %2)
  %.not = icmp sgt i16 %11, -1
  %12 = and i16 %11, 32767
  %13 = zext nneg i16 %12 to i32
  store i32 %13, ptr %7, align 4
  br i1 %.not, label %14, label %18

14:                                               ; preds = %10
  store i32 4, ptr %5, align 4
  %15 = add i32 %2, 2
  %16 = tail call zeroext i16 @tvb_get_ntohs(ptr noundef %0, i32 noundef %15)
  %17 = zext i16 %16 to i32
  br label %19

18:                                               ; preds = %10
  store i32 2, ptr %5, align 4
  br label %19

19:                                               ; preds = %18, %14
  %storemerge = phi i32 [ 2, %18 ], [ %17, %14 ]
  store i32 %storemerge, ptr %6, align 4
  %20 = load i32, ptr %3, align 8
  %21 = load i32, ptr %5, align 4
  %22 = add i32 %21, %storemerge
  %23 = tail call ptr @proto_tree_add_item(ptr noundef %1, i32 noundef %20, ptr noundef %0, i32 noundef %2, i32 noundef %22, i32 noundef 0)
  store ptr %23, ptr %8, align 8
  %24 = load i32, ptr %7, align 4
  %25 = tail call ptr @rval_to_str(i32 noundef %24, ptr noundef %4, ptr noundef nonnull @.str.850)
  %26 = load ptr, ptr %8, align 8
  %27 = load i32, ptr %7, align 4
  %28 = load i32, ptr %6, align 4
  tail call void (ptr, ptr, ...) @proto_item_append_text(ptr noundef %26, ptr noundef nonnull @.str.851, i32 noundef %27, i32 noundef %28, ptr noundef %25)
  %29 = load ptr, ptr %8, align 8
  %30 = load i32, ptr @ett_isakmp_attr, align 4
  %31 = tail call ptr @proto_item_add_subtree(ptr noundef %29, i32 noundef %30)
  store ptr %31, ptr %9, align 8
  %32 = getelementptr inbounds nuw i8, ptr %3, i64 4
  %33 = load i32, ptr %32, align 4
  %34 = tail call ptr @proto_tree_add_item(ptr noundef %31, i32 noundef %33, ptr noundef %0, i32 noundef %2, i32 noundef 2, i32 noundef 0)
  %35 = load ptr, ptr %9, align 8
  %36 = getelementptr inbounds nuw i8, ptr %3, i64 8
  %37 = load i32, ptr %36, align 8
  %38 = load i32, ptr %7, align 4
  %39 = tail call ptr @proto_tree_add_uint(ptr noundef %35, i32 noundef %37, ptr noundef %0, i32 noundef %2, i32 noundef 2, i32 noundef %38)
  br i1 %.not, label %40, label %46

40:                                               ; preds = %19
  %41 = load ptr, ptr %9, align 8
  %42 = getelementptr inbounds nuw i8, ptr %3, i64 12
  %43 = load i32, ptr %42, align 4
  %44 = add i32 %2, 2
  %45 = tail call ptr @proto_tree_add_item(ptr noundef %41, i32 noundef %43, ptr noundef %0, i32 noundef %44, i32 noundef 2, i32 noundef 0)
  br label %46

46:                                               ; preds = %40, %19
  %47 = load i32, ptr %6, align 4
  %.not42 = icmp eq i32 %47, 0
  br i1 %.not42, label %55, label %48

48:                                               ; preds = %46
  %49 = load ptr, ptr %9, align 8
  %50 = getelementptr inbounds nuw i8, ptr %3, i64 16
  %51 = load i32, ptr %50, align 8
  %52 = load i32, ptr %5, align 4
  %53 = add i32 %52, %2
  %54 = tail call ptr @proto_tree_add_item(ptr noundef %49, i32 noundef %51, ptr noundef %0, i32 noundef %53, i32 noundef %47, i32 noundef 0)
  br label %55

55:                                               ; preds = %48, %46
  ret void
}